target datalayout = "e-m:e-p270:32:32-p271:32:32-p272:64:64-i64:64-i128:128-f80:128-n8:16:32:64-S128"
target triple = "x86_64-pc-linux-gnu"

%struct.ProbRange = type { i8, i8 }
%struct.ProbRangesQueue = type { [4608 x %struct.ProbRange], i32 }

@ff_xface_probranges_2x2 = external constant [16 x %struct.ProbRange], align 16

; Function Attrs: inlinehint nounwind uwtable
define internal i32 @pq_push(ptr noundef %0, ptr noundef %1) #6 {
  %3 = alloca i32, align 4
  %4 = alloca ptr, align 8
  %5 = alloca ptr, align 8
  store ptr %0, ptr %4, align 8, !tbaa !53
  store ptr %1, ptr %5, align 8, !tbaa !53
  %6 = load ptr, ptr %4, align 8, !tbaa !53
  %7 = getelementptr inbounds nuw %struct.ProbRangesQueue, ptr %6, i32 0, i32 1
  %8 = load i32, ptr %7, align 4, !tbaa !44
  %9 = icmp sge i32 %8, 4607
  br i1 %9, label %10, label %11

10:                                               ; preds = %2
  store i32 -1, ptr %3, align 4
  br label %21

11:                                               ; preds = %2
  %12 = load ptr, ptr %4, align 8, !tbaa !53
  %13 = getelementptr inbounds nuw %struct.ProbRangesQueue, ptr %12, i32 0, i32 0
  %14 = load ptr, ptr %4, align 8, !tbaa !53
  %15 = getelementptr inbounds nuw %struct.ProbRangesQueue, ptr %14, i32 0, i32 1
  %16 = load i32, ptr %15, align 4, !tbaa !44
  %17 = add nsw i32 %16, 1
  store i32 %17, ptr %15, align 4, !tbaa !44
  %18 = sext i32 %16 to i64
  %19 = getelementptr inbounds [4608 x %struct.ProbRange], ptr %13, i64 0, i64 %18
  %20 = load ptr, ptr %5, align 8, !tbaa !53
  call void @llvm.memcpy.p0.p0.i64(ptr align 2 %19, ptr align 1 %20, i64 2, i1 false), !tbaa.struct !57
  store i32 0, ptr %3, align 4
  br label %21

21:                                               ; preds = %11, %10
  %22 = load i32, ptr %3, align 4
  ret i32 %22
}

; Function Attrs: nounwind uwtable
define internal void @push_greys(ptr noundef %0, ptr noundef %1, i32 noundef %2, i32 noundef %3) #0 {
  %5 = alloca ptr, align 8
  %6 = alloca ptr, align 8
  %7 = alloca i32, align 4
  %8 = alloca i32, align 4
  %9 = alloca ptr, align 8
  store ptr %0, ptr %5, align 8, !tbaa !53
  store ptr %1, ptr %6, align 8, !tbaa !39
  store i32 %2, ptr %7, align 4, !tbaa !36
  store i32 %3, ptr %8, align 4, !tbaa !36
  %10 = load i32, ptr %7, align 4, !tbaa !36
  %11 = icmp sgt i32 %10, 3
  br i1 %11, label %12, label %47

12:                                               ; preds = %4
  %13 = load i32, ptr %7, align 4, !tbaa !36
  %14 = sdiv i32 %13, 2
  store i32 %14, ptr %7, align 4, !tbaa !36
  %15 = load i32, ptr %8, align 4, !tbaa !36
  %16 = sdiv i32 %15, 2
  store i32 %16, ptr %8, align 4, !tbaa !36
  %17 = load ptr, ptr %5, align 8, !tbaa !53
  %18 = load ptr, ptr %6, align 8, !tbaa !39
  %19 = load i32, ptr %7, align 4, !tbaa !36
  %20 = load i32, ptr %8, align 4, !tbaa !36
  call void @push_greys(ptr noundef %17, ptr noundef %18, i32 noundef %19, i32 noundef %20)
  %21 = load ptr, ptr %5, align 8, !tbaa !53
  %22 = load ptr, ptr %6, align 8, !tbaa !39
  %23 = load i32, ptr %7, align 4, !tbaa !36
  %24 = sext i32 %23 to i64
  %25 = getelementptr inbounds i8, ptr %22, i64 %24
  %26 = load i32, ptr %7, align 4, !tbaa !36
  %27 = load i32, ptr %8, align 4, !tbaa !36
  call void @push_greys(ptr noundef %21, ptr noundef %25, i32 noundef %26, i32 noundef %27)
  %28 = load ptr, ptr %5, align 8, !tbaa !53
  %29 = load ptr, ptr %6, align 8, !tbaa !39
  %30 = load i32, ptr %8, align 4, !tbaa !36
  %31 = mul nsw i32 48, %30
  %32 = sext i32 %31 to i64
  %33 = getelementptr inbounds i8, ptr %29, i64 %32
  %34 = load i32, ptr %7, align 4, !tbaa !36
  %35 = load i32, ptr %8, align 4, !tbaa !36
  call void @push_greys(ptr noundef %28, ptr noundef %33, i32 noundef %34, i32 noundef %35)
  %36 = load ptr, ptr %5, align 8, !tbaa !53
  %37 = load ptr, ptr %6, align 8, !tbaa !39
  %38 = load i32, ptr %8, align 4, !tbaa !36
  %39 = mul nsw i32 48, %38
  %40 = sext i32 %39 to i64
  %41 = getelementptr inbounds i8, ptr %37, i64 %40
  %42 = load i32, ptr %7, align 4, !tbaa !36
  %43 = sext i32 %42 to i64
  %44 = getelementptr inbounds i8, ptr %41, i64 %43
  %45 = load i32, ptr %7, align 4, !tbaa !36
  %46 = load i32, ptr %8, align 4, !tbaa !36
  call void @push_greys(ptr noundef %36, ptr noundef %44, i32 noundef %45, i32 noundef %46)
  br label %78

47:                                               ; preds = %4
  call void @llvm.lifetime.start.p0(i64 8, ptr %9) #7
  %48 = load ptr, ptr %6, align 8, !tbaa !39
  %49 = load i8, ptr %48, align 1, !tbaa !40
  %50 = sext i8 %49 to i32
  %51 = sext i32 %50 to i64
  %52 = getelementptr inbounds %struct.ProbRange, ptr @ff_xface_probranges_2x2, i64 %51
  %53 = load ptr, ptr %6, align 8, !tbaa !39
  %54 = getelementptr inbounds i8, ptr %53, i64 1
  %55 = load i8, ptr %54, align 1, !tbaa !40
  %56 = sext i8 %55 to i32
  %57 = mul nsw i32 2, %56
  %58 = sext i32 %57 to i64
  %59 = getelementptr inbounds %struct.ProbRange, ptr %52, i64 %58
  %60 = load ptr, ptr %6, align 8, !tbaa !39
  %61 = getelementptr inbounds i8, ptr %60, i64 48
  %62 = load i8, ptr %61, align 1, !tbaa !40
  %63 = sext i8 %62 to i32
  %64 = mul nsw i32 4, %63
  %65 = sext i32 %64 to i64
  %66 = getelementptr inbounds %struct.ProbRange, ptr %59, i64 %65
  %67 = load ptr, ptr %6, align 8, !tbaa !39
  %68 = getelementptr inbounds i8, ptr %67, i64 48
  %69 = getelementptr inbounds i8, ptr %68, i64 1
  %70 = load i8, ptr %69, align 1, !tbaa !40
  %71 = sext i8 %70 to i32
  %72 = mul nsw i32 8, %71
  %73 = sext i32 %72 to i64
  %74 = getelementptr inbounds %struct.ProbRange, ptr %66, i64 %73
  store ptr %74, ptr %9, align 8, !tbaa !53
  %75 = load ptr, ptr %5, align 8, !tbaa !53
  %76 = load ptr, ptr %9, align 8, !tbaa !53
  %77 = call i32 @pq_push(ptr noundef %75, ptr noundef %76)
  call void @llvm.lifetime.end.p0(i64 8, ptr %9) #7
  br label %78

78:                                               ; preds = %47, %12
  ret void
}