; Function Attrs: nofree nosync nounwind memory(argmem: readwrite) uwtable
define internal fastcc void @push_greys(ptr noundef nonnull %0, ptr noundef %1, i32 noundef range(i32 0, 17) %2, i32 noundef range(i32 0, 17) %3) unnamed_addr #5 {
  %5 = icmp samesign ugt i32 %2, 3
  br i1 %5, label %tailrecurse, label %tailrecurse._crit_edge

tailrecurse:                                      ; preds = %4, %tailrecurse
  %.tr3033 = phi i32 [ %7, %tailrecurse ], [ %3, %4 ]
  %.tr2932 = phi i32 [ %6, %tailrecurse ], [ %2, %4 ]
  %.tr2831 = phi ptr [ %13, %tailrecurse ], [ %1, %4 ]
  %6 = lshr i32 %.tr2932, 1
  %7 = lshr i32 %.tr3033, 1
  tail call fastcc void @push_greys(ptr noundef %0, ptr noundef %.tr2831, i32 noundef %6, i32 noundef %7)
  %8 = zext nneg i32 %6 to i64
  %9 = getelementptr inbounds nuw i8, ptr %.tr2831, i64 %8
  tail call fastcc void @push_greys(ptr noundef %0, ptr noundef %9, i32 noundef %6, i32 noundef %7)
  %10 = mul nuw nsw i32 %7, 48
  %11 = zext nneg i32 %10 to i64
  %12 = getelementptr inbounds nuw i8, ptr %.tr2831, i64 %11
  tail call fastcc void @push_greys(ptr noundef %0, ptr noundef %12, i32 noundef %6, i32 noundef %7)
  %13 = getelementptr inbounds nuw i8, ptr %12, i64 %8
  %14 = icmp samesign ugt i32 %.tr2932, 7
  br i1 %14, label %tailrecurse, label %tailrecurse._crit_edge

tailrecurse._crit_edge:                           ; preds = %tailrecurse, %4
  %.tr28.lcssa = phi ptr [ %1, %4 ], [ %13, %tailrecurse ]
  %15 = getelementptr inbounds nuw i8, ptr %0, i64 9216
  %16 = load i32, ptr %15, align 4, !tbaa !35
  %17 = icmp sgt i32 %16, 4606
  br i1 %17, label %pq_push.exit, label %18

18:                                               ; preds = %tailrecurse._crit_edge
  %19 = load i8, ptr %.tr28.lcssa, align 1, !tbaa !30
  %20 = sext i8 %19 to i64
  %21 = getelementptr inbounds %struct.ProbRange, ptr @ff_xface_probranges_2x2, i64 %20
  %22 = getelementptr inbounds nuw i8, ptr %.tr28.lcssa, i64 1
  %23 = load i8, ptr %22, align 1, !tbaa !30
  %24 = sext i8 %23 to i32
  %25 = shl nsw i32 %24, 1
  %26 = sext i32 %25 to i64
  %27 = getelementptr inbounds %struct.ProbRange, ptr %21, i64 %26
  %28 = getelementptr inbounds nuw i8, ptr %.tr28.lcssa, i64 48
  %29 = load i8, ptr %28, align 1, !tbaa !30
  %30 = sext i8 %29 to i32
  %31 = shl nsw i32 %30, 2
  %32 = sext i32 %31 to i64
  %33 = getelementptr inbounds %struct.ProbRange, ptr %27, i64 %32
  %34 = getelementptr inbounds nuw i8, ptr %.tr28.lcssa, i64 49
  %35 = load i8, ptr %34, align 1, !tbaa !30
  %36 = sext i8 %35 to i32
  %37 = shl nsw i32 %36, 3
  %38 = sext i32 %37 to i64
  %39 = getelementptr inbounds %struct.ProbRange, ptr %33, i64 %38
  %40 = add nsw i32 %16, 1
  store i32 %40, ptr %15, align 4, !tbaa !35
  %41 = sext i32 %16 to i64
  %42 = getelementptr inbounds [4608 x %struct.ProbRange], ptr %0, i64 0, i64 %41
  %43 = load i16, ptr %39, align 2
  store i16 %43, ptr %42, align 2
  br label %pq_push.exit

pq_push.exit:                                     ; preds = %18, %tailrecurse._crit_edge
  ret void
}